target datalayout = "e-m:e-p270:32:32-p271:32:32-p272:64:64-i64:64-i128:128-f80:128-n8:16:32:64-S128"
target triple = "x86_64-pc-linux-gnu"

%struct.AVFilterChannelLayouts = type { ptr, i32, i8, i8, i32, ptr }

; Function Attrs: nounwind uwtable
define void @ff_channel_layouts_changeref(ptr noundef %0, ptr noundef %1) #0 {
  %3 = alloca ptr, align 8
  %4 = alloca ptr, align 8
  %5 = alloca i32, align 4
  %6 = alloca i32, align 4
  store ptr %0, ptr %3, align 8, !tbaa !52
  store ptr %1, ptr %4, align 8, !tbaa !52
  br label %7

7:                                                ; preds = %2
  call void @llvm.lifetime.start.p0(i64 4, ptr %5) #7
  store i32 -1, ptr %5, align 4, !tbaa !21
  br label %8

8:                                                ; preds = %7
  call void @llvm.lifetime.start.p0(i64 4, ptr %6) #7
  store i32 0, ptr %6, align 4, !tbaa !21
  br label %9

9:                                                ; preds = %30, %8
  %10 = load i32, ptr %6, align 4, !tbaa !21
  %11 = load ptr, ptr %3, align 8, !tbaa !52
  %12 = load ptr, ptr %11, align 8, !tbaa !38
  %13 = getelementptr inbounds nuw %struct.AVFilterChannelLayouts, ptr %12, i32 0, i32 4
  %14 = load i32, ptr %13, align 8, !tbaa !54
  %15 = icmp ult i32 %10, %14
  br i1 %15, label %16, label %33

16:                                               ; preds = %9
  %17 = load ptr, ptr %3, align 8, !tbaa !52
  %18 = load ptr, ptr %17, align 8, !tbaa !38
  %19 = getelementptr inbounds nuw %struct.AVFilterChannelLayouts, ptr %18, i32 0, i32 5
  %20 = load ptr, ptr %19, align 8, !tbaa !55
  %21 = load i32, ptr %6, align 4, !tbaa !21
  %22 = sext i32 %21 to i64
  %23 = getelementptr inbounds ptr, ptr %20, i64 %22
  %24 = load ptr, ptr %23, align 8, !tbaa !52
  %25 = load ptr, ptr %3, align 8, !tbaa !52
  %26 = icmp eq ptr %24, %25
  br i1 %26, label %27, label %29

27:                                               ; preds = %16
  %28 = load i32, ptr %6, align 4, !tbaa !21
  store i32 %28, ptr %5, align 4, !tbaa !21
  br label %33

29:                                               ; preds = %16
  br label %30

30:                                               ; preds = %29
  %31 = load i32, ptr %6, align 4, !tbaa !21
  %32 = add nsw i32 %31, 1
  store i32 %32, ptr %6, align 4, !tbaa !21
  br label %9, !llvm.loop !72

33:                                               ; preds = %27, %9
  call void @llvm.lifetime.end.p0(i64 4, ptr %6) #7
  br label %34

34:                                               ; preds = %33
  br label %35

35:                                               ; preds = %34
  %36 = load i32, ptr %5, align 4, !tbaa !21
  %37 = icmp sge i32 %36, 0
  br i1 %37, label %38, label %51

38:                                               ; preds = %35
  %39 = load ptr, ptr %4, align 8, !tbaa !52
  %40 = load ptr, ptr %3, align 8, !tbaa !52
  %41 = load ptr, ptr %40, align 8, !tbaa !38
  %42 = getelementptr inbounds nuw %struct.AVFilterChannelLayouts, ptr %41, i32 0, i32 5
  %43 = load ptr, ptr %42, align 8, !tbaa !55
  %44 = load i32, ptr %5, align 4, !tbaa !21
  %45 = sext i32 %44 to i64
  %46 = getelementptr inbounds ptr, ptr %43, i64 %45
  store ptr %39, ptr %46, align 8, !tbaa !52
  %47 = load ptr, ptr %3, align 8, !tbaa !52
  %48 = load ptr, ptr %47, align 8, !tbaa !38
  %49 = load ptr, ptr %4, align 8, !tbaa !52
  store ptr %48, ptr %49, align 8, !tbaa !38
  %50 = load ptr, ptr %3, align 8, !tbaa !52
  store ptr null, ptr %50, align 8, !tbaa !38
  br label %51

51:                                               ; preds = %38, %35
  call void @llvm.lifetime.end.p0(i64 4, ptr %5) #7
  br label %52

52:                                               ; preds = %51
  ret void
}