; Function Attrs: nofree norecurse nosync nounwind memory(readwrite, inaccessiblemem: none) uwtable
define void @ff_channel_layouts_changeref(ptr noundef captures(address) %0, ptr noundef %1) local_unnamed_addr #8 {
  %3 = load ptr, ptr %0, align 8, !tbaa !33
  %4 = getelementptr inbounds nuw i8, ptr %3, i64 16
  %5 = load i32, ptr %4, align 8, !tbaa !46
  %.not = icmp eq i32 %5, 0
  br i1 %.not, label %.thread, label %.lr.ph

.lr.ph:                                           ; preds = %2
  %6 = getelementptr inbounds nuw i8, ptr %3, i64 24
  %7 = load ptr, ptr %6, align 8, !tbaa !47
  %wide.trip.count = zext i32 %5 to i64
  br label %8

8:                                                ; preds = %.lr.ph, %12
  %indvars.iv = phi i64 [ 0, %.lr.ph ], [ %indvars.iv.next, %12 ]
  %9 = getelementptr inbounds nuw ptr, ptr %7, i64 %indvars.iv
  %10 = load ptr, ptr %9, align 8, !tbaa !48
  %11 = icmp eq ptr %10, %0
  br i1 %11, label %13, label %12

12:                                               ; preds = %8
  %indvars.iv.next = add nuw nsw i64 %indvars.iv, 1
  %exitcond.not = icmp eq i64 %indvars.iv.next, %wide.trip.count
  br i1 %exitcond.not, label %.thread, label %8, !llvm.loop !64

13:                                               ; preds = %8
  %14 = and i64 %indvars.iv, 4294967295
  %15 = getelementptr inbounds nuw ptr, ptr %7, i64 %14
  store ptr %1, ptr %15, align 8, !tbaa !48
  store ptr %3, ptr %1, align 8, !tbaa !33
  store ptr null, ptr %0, align 8, !tbaa !33
  br label %.thread

.thread:                                          ; preds = %12, %2, %13
  ret void
}